Microchip MPLAB XC8 Compiler V2.32

Linker command line:

-W-3 --edf=C:\Program Files\Microchip\xc8\v2.32\pic\dat\en_msgs.txt -cn \
  -h+dist/default/production\Dig2_lab02.X.production.sym \
  --cmf=dist/default/production\Dig2_lab02.X.production.cmf -z -Q16F887 \
  -oC:\Users\nicou\AppData\Local\Temp\xcAsd14.4 --defsym=__MPLAB_BUILD=1 \
  -Mdist/default/production/Dig2_lab02.X.production.map -E1 \
  -ver=XC8 Compiler --acfsm=1493 -ASTACK=0110h-016Fh -pstack=STACK \
  -ACODE=00h-07FFhx4 -ASTRCODE=00h-01FFFh -ASTRING=00h-0FFhx32 \
  -ACONST=00h-0FFhx32 -AENTRY=00h-0FFhx32 -ACOMMON=070h-07Fh \
  -ABANK0=020h-06Fh -ABANK1=0A0h-0EFh -ABANK2=0110h-016Fh \
  -ABANK3=0190h-01EFh -ARAM=020h-06Fh,0A0h-0EFh,0110h-016Fh,0190h-01EFh \
  -AABS1=020h-07Fh,0A0h-0EFh,0110h-016Fh,0190h-01EFh -ASFR0=00h-01Fh \
  -ASFR1=080h-09Fh -ASFR2=0100h-010Fh -ASFR3=0180h-018Fh \
  -ACONFIG=02007h-02008h -DCONFIG=2 -AIDLOC=02000h-02003h -DIDLOC=2 \
  -AEEDATA=00h-0FFh/02100h -peeprom_data=EEDATA -DEEDATA=2 -DCODE=2 \
  -DSTRCODE=2 -DSTRING=2 -DCONST=2 -DENTRY=2 \
  -preset_vec=00h,intentry=04h,init,end_init -ppowerup=CODE -pcinit=CODE \
  -pfunctab=ENTRY -k C:\Users\nicou\AppData\Local\Temp\xcAsd14.o \
  dist/default/production\Dig2_lab02.X.production.o 

Object code version is 3.11

Machine type is 16F887



                Name                               Link     Load   Length Selector   Space Scale
C:\Users\nicou\AppData\Local\Temp\xcAsd14.o
                end_init                              C        C        3        8       0
                reset_vec                             0        0        3        0       0
                config                             2007     2007        2        0       4
dist/default/production\Dig2_lab02.X.production.o
                cinit                                 F        F       16        8       0
                intentry                              4        4        8        8       0
                config                             2007     2007        2        0       4
                text22                              492      492       29      868       0
                text21                              3BE      3BE       35        8       0
                text20                              506      506       12      868       0
                text19                              550      550        8      868       0
                text18                              558      558        7      868       0
                text17                              4F1      4F1       15      868       0
                text16                              536      536        E      868       0
                text15                              527      527        F      868       0
                text14                              544      544        C      868       0
                text13                              2AA      2AA       4C        8       0
                text12                              434      434       33      868       0
                text11                              518      518        F      868       0
                text10                              33C      33C       46        8       0
                text9                               4DA      4DA       17      868       0
                text8                               4BB      4BB       1F      868       0
                text7                               190      190       69        8       0
                text6                               467      467       2B      868       0
                text5                               2F6      2F6       46        8       0
                text4                               382      382       3C        8       0
                text3                               1F9      1F9       5E        8       0
                text2                                25       25       EA        8       0
                text1                               257      257       53        8       0
                maintext                            10F      10F       81        8       0
                cstackBANK0                          20       20       26       20       1
                cstackCOMMON                         70       70        8       70       1
                bssBANK0                             46       46        D       20       1
                bssCOMMON                            78       78        3       70       1
                strings                             400      400       34      800       0

TOTAL           Name                               Link     Load   Length     Space
        CLASS   STACK          

        CLASS   CODE           
                end_init                              C        C        3         0
                cinit                                 F        F       16         0
                intentry                              4        4        8         0
                reset_vec                             0        0        3         0
                text22                              492      492       29         0
                text21                              3BE      3BE       35         0
                text20                              506      506       12         0
                text19                              550      550        8         0
                text18                              558      558        7         0
                text17                              4F1      4F1       15         0
                text16                              536      536        E         0
                text15                              527      527        F         0
                text14                              544      544        C         0
                text13                              2AA      2AA       4C         0
                text12                              434      434       33         0
                text11                              518      518        F         0
                text10                              33C      33C       46         0
                text9                               4DA      4DA       17         0
                text8                               4BB      4BB       1F         0
                text7                               190      190       69         0
                text6                               467      467       2B         0
                text5                               2F6      2F6       46         0
                text4                               382      382       3C         0
                text3                               1F9      1F9       5E         0
                text2                                25       25       EA         0
                text1                               257      257       53         0
                maintext                            10F      10F       81         0

        CLASS   STRCODE        

        CLASS   STRING         
                strings                             400      400       34         0

        CLASS   CONST          

        CLASS   ENTRY          

        CLASS   COMMON         
                cstackCOMMON                         70       70        8         1
                bssCOMMON                            78       78        3         1

        CLASS   BANK0          
                cstackBANK0                          20       20       26         1
                bssBANK0                             46       46        D         1

        CLASS   BANK1          

        CLASS   BANK2          

        CLASS   BANK3          

        CLASS   RAM            

        CLASS   ABS1           
                abs_s1                               7E       7E        2         1

        CLASS   SFR0           

        CLASS   SFR1           

        CLASS   SFR2           

        CLASS   SFR3           

        CLASS   CONFIG         
                config                             2007     2007        2         4

        CLASS   IDLOC          

        CLASS   EEDATA         



SEGMENTS        Name                           Load    Length   Top    Selector   Space  Class     Delta

                reset_vec                      000000  000003  000003         0       0  CODE        2
                intentry                       000004  0003EF  0003F3         8       0  CODE        2
                cstackBANK0                    000020  000033  000053        20       1  BANK0       1
                cstackCOMMON                   000070  00000B  00007B        70       1  COMMON      1
                strings                        000400  000034  000434       800       0  STRING      2
                text12                         000434  00012B  00055F       868       0  CODE        2


UNUSED ADDRESS RANGES

        Name                Unused          Largest block    Delta
        BANK0            0053-006F             1D           1
        BANK1            00A0-00EF             50           1
        BANK2            0110-016F             60           1
        BANK3            0190-01EF             60           1
        CODE             0003-0003              1           2
                         03F3-03FF              D
                         055F-1FFF            800
        COMMON           007B-007D              3           1
        CONST            0003-0003              1           2
                         03F3-03FF              D
                         055F-1FFF            100
        EEDATA           2100-21FF            100           2
        ENTRY            0003-0003              1           2
                         03F3-03FF              D
                         055F-1FFF            100
        IDLOC            2000-2003              4           2
        RAM              0053-006F             1D           1
                         00A0-00EF             50
                         0110-016F             60
                         0190-01EF             60
        SFR0             0000-001F             20           1
        SFR1             0080-009F             20           1
        SFR2             0100-010F             10           1
        SFR3             0180-018F             10           1
        STACK            0110-016F             60           1
        STRCODE          0003-0003              1           2
                         03F3-03FF              D
                         055F-1FFF           1AA1
        STRING           0003-0003              1           2
                         03F3-03FF              D
                         055F-1FFF            100

                                  Symbol Table

?___awdiv                 cstackBANK0  0022
?___lwdiv                 cstackCOMMON 0073
?___lwmod                 cstackBANK0  0023
?___wmul                  cstackCOMMON 0073
?_sprintf                 cstackBANK0  0029
LCD_CMD@cmd               cstackCOMMON 0075
LCD_setCursor@columna     cstackCOMMON 0076
LCD_setCursor@fila        cstackCOMMON 0077
LCD_write@value           cstackCOMMON 0075
LCD_writeString@i         cstackBANK0  0023
LCD_writeString@text      cstackCOMMON 0076
_ADCON0bits               (abs)        001F
_ADCON1bits               (abs)        009F
_ADRESH                   (abs)        001E
_ANSEL                    (abs)        0188
_ANSELH                   (abs)        0189
_ANSELbits                (abs)        0188
_INTCONbits               (abs)        000B
_LCD_CMD                  text14       0544
_LCD_START                text13       02AA
_LCD_setCursor            text12       0434
_LCD_write                text11       0518
_LCD_writeString          text10       033C
_OSCCONbits               (abs)        008F
_PIE1bits                 (abs)        008C
_PIR1bits                 (abs)        000C
_PORTA                    (abs)        0005
_PORTB                    (abs)        0006
_PORTC                    (abs)        0007
_PORTCbits                (abs)        0007
_PORTD                    (abs)        0008
_T1CONbits                (abs)        0010
_TMR1H                    (abs)        000F
_TMR1L                    (abs)        000E
_TRISA                    (abs)        0085
_TRISAbits                (abs)        0085
_TRISB                    (abs)        0086
_TRISC                    (abs)        0087
_TRISD                    (abs)        0088
__Habs1                   abs1         0000
__Hbank0                  bank0        0000
__Hbank1                  bank1        0000
__Hbank2                  bank2        0000
__Hbank3                  bank3        0000
__HbssBANK0               bssBANK0     0000
__HbssCOMMON              bssCOMMON    0000
__Hcinit                  cinit        0025
__Hclrtext                clrtext      0000
__Hcode                   code         0000
__Hcommon                 common       0000
__Hconfig                 config       2009
__HcstackBANK0            cstackBANK0  0000
__HcstackCOMMON           cstackCOMMON 0000
__Heeprom_data            eeprom_data  0000
__Hend_init               end_init     000F
__Hfunctab                functab      0000
__Hinit                   init         000C
__Hintentry               intentry     000C
__Hmaintext               maintext     0000
__Hpowerup                powerup      0000
__Hram                    ram          0000
__Hreset_vec              reset_vec    0003
__Hsfr0                   sfr0         0000
__Hsfr1                   sfr1         0000
__Hsfr2                   sfr2         0000
__Hsfr3                   sfr3         0000
__Hspace_0                (abs)        055F
__Hspace_1                (abs)        007B
__Hspace_2                (abs)        0000
__Hspace_3                (abs)        0000
__Hspace_4                (abs)        4010
__Hstack                  stack        0000
__Hstrings                strings      0000
__Htext                   text         0000
__Labs1                   abs1         0000
__Lbank0                  bank0        0000
__Lbank1                  bank1        0000
__Lbank2                  bank2        0000
__Lbank3                  bank3        0000
__LbssBANK0               bssBANK0     0000
__LbssCOMMON              bssCOMMON    0000
__Lcinit                  cinit        000F
__Lclrtext                clrtext      0000
__Lcode                   code         0000
__Lcommon                 common       0000
__Lconfig                 config       0000
__LcstackBANK0            cstackBANK0  0000
__LcstackCOMMON           cstackCOMMON 0000
__Leeprom_data            eeprom_data  0000
__Lend_init               end_init     000C
__Lfunctab                functab      0000
__Linit                   init         000C
__Lintentry               intentry     0004
__Lmaintext               maintext     0000
__Lpowerup                powerup      0000
__Lram                    ram          0000
__Lreset_vec              reset_vec    0000
__Lsfr0                   sfr0         0000
__Lsfr1                   sfr1         0000
__Lsfr2                   sfr2         0000
__Lsfr3                   sfr3         0000
__Lspace_0                (abs)        0000
__Lspace_1                (abs)        0000
__Lspace_2                (abs)        0000
__Lspace_3                (abs)        0000
__Lspace_4                (abs)        0000
__Lstack                  stack        0000
__Lstrings                strings      0000
__Ltext                   text         0000
__S0                      (abs)        055F
__S1                      (abs)        007B
__S2                      (abs)        0000
__S3                      (abs)        0000
___awdiv                  text7        0190
___awdiv@counter          cstackBANK0  0026
___awdiv@dividend         cstackBANK0  0024
___awdiv@divisor          cstackBANK0  0022
___awdiv@quotient         cstackBANK0  0028
___awdiv@sign             cstackBANK0  0027
___int_sp                 stack        0000
___latbits                (abs)        0002
___lwdiv                  text5        02F6
___lwdiv@counter          cstackBANK0  0020
___lwdiv@dividend         cstackCOMMON 0075
___lwdiv@divisor          cstackCOMMON 0073
___lwdiv@quotient         cstackBANK0  0021
___lwmod                  text4        0382
___lwmod@counter          cstackBANK0  0028
___lwmod@dividend         cstackBANK0  0025
___lwmod@divisor          cstackBANK0  0023
___sp                     stack        0000
___stackhi                (abs)        0000
___stacklo                (abs)        0000
___wmul                   text6        0467
___wmul@multiplicand      cstackCOMMON 0075
___wmul@multiplier        cstackCOMMON 0073
___wmul@product           cstackBANK0  0020
__end_of_LCD_CMD          text14       0550
__end_of_LCD_START        text13       02F6
__end_of_LCD_setCursor    text12       0467
__end_of_LCD_write        text11       0527
__end_of_LCD_writeString  text10       0382
__end_of___awdiv          text7        01F9
__end_of___lwdiv          text5        033C
__end_of___lwmod          text4        03BE
__end_of___wmul           text6        0492
__end_of__initialization  cinit        0021
__end_of__stringtab       strings      0410
__end_of_con_ADC          text21       03F3
__end_of_config_adc       text20       0518
__end_of_config_clock     text19       0558
__end_of_config_ie        text18       055F
__end_of_config_io        text17       0506
__end_of_config_tmr1      text16       0544
__end_of_division         text3        0257
__end_of_dpowers          strings      041A
__end_of_flip_EN          text15       0536
__end_of_isr              text22       04BB
__end_of_lcd_setup        text9        04F1
__end_of_main             maintext     0190
__end_of_setup            text8        04DA
__end_of_sprintf          text2        010F
__end_of_transform        text1        02AA
__initialization          cinit        000F
__pbssBANK0               bssBANK0     0046
__pbssCOMMON              bssCOMMON    0078
__pcstackBANK0            cstackBANK0  0020
__pcstackCOMMON           cstackCOMMON 0070
__pintentry               intentry     0004
__pmaintext               maintext     010F
__pstrings                strings      0400
__ptext1                  text1        0257
__ptext10                 text10       033C
__ptext11                 text11       0518
__ptext12                 text12       0434
__ptext13                 text13       02AA
__ptext14                 text14       0544
__ptext15                 text15       0527
__ptext16                 text16       0536
__ptext17                 text17       04F1
__ptext18                 text18       0558
__ptext19                 text19       0550
__ptext2                  text2        0025
__ptext20                 text20       0506
__ptext21                 text21       03BE
__ptext22                 text22       0492
__ptext3                  text3        01F9
__ptext4                  text4        0382
__ptext5                  text5        02F6
__ptext6                  text6        0467
__ptext7                  text7        0190
__ptext8                  text8        04BB
__ptext9                  text9        04DA
__size_of_LCD_CMD         (abs)        0000
__size_of_LCD_START       (abs)        0000
__size_of_LCD_setCursor   (abs)        0000
__size_of_LCD_write       (abs)        0000
__size_of_LCD_writeString (abs)        0000
__size_of___awdiv         (abs)        0000
__size_of___lwdiv         (abs)        0000
__size_of___lwmod         (abs)        0000
__size_of___wmul          (abs)        0000
__size_of_con_ADC         (abs)        0000
__size_of_config_adc      (abs)        0000
__size_of_config_clock    (abs)        0000
__size_of_config_ie       (abs)        0000
__size_of_config_io       (abs)        0000
__size_of_config_tmr1     (abs)        0000
__size_of_division        (abs)        0000
__size_of_flip_EN         (abs)        0000
__size_of_isr             (abs)        0000
__size_of_lcd_setup       (abs)        0000
__size_of_main            (abs)        0000
__size_of_setup           (abs)        0000
__size_of_sprintf         (abs)        0000
__size_of_transform       (abs)        0000
__stringbase              strings      040F
__stringtab               strings      0400
_adc_change               bssBANK0     004B
_buffer                   bssBANK0     004E
_cen                      bssBANK0     004A
_con_ADC                  text21       03BE
_config_adc               text20       0506
_config_clock             text19       0550
_config_ie                text18       0558
_config_io                text17       04F1
_config_tmr1              text16       0536
_dec                      bssBANK0     0049
_division                 text3        01F9
_division$1155            cstackBANK0  002C
_dpowers                  strings      0410
_flip_EN                  text15       0527
_isr                      text22       0492
_lcd_setup                text9        04DA
_main                     maintext     010F
_pote1                    bssBANK0     004D
_pote2                    bssBANK0     004C
_setup                    text8        04BB
_sprintf                  text2        0025
_transform                text1        0257
_uni                      bssBANK0     0048
btemp                     (abs)        007E
con_ADC@ADC_valor         cstackCOMMON 0073
division@value            cstackBANK0  0029
end_of_initialization     cinit        0021
interrupt_function        intentry     0004
intlevel0                 functab      0000
intlevel1                 functab      0000
intlevel2                 functab      0000
intlevel3                 functab      0000
intlevel4                 functab      0000
intlevel5                 functab      0000
reset_vec                 reset_vec    0000
saved_w                   (abs)        007E
sprintf@ap                cstackBANK0  0033
sprintf@c                 cstackBANK0  0039
sprintf@f                 cstackBANK0  0029
sprintf@flag              cstackBANK0  0034
sprintf@prec              cstackBANK0  0035
sprintf@sp                cstackBANK0  0038
sprintf@val               cstackBANK0  0036
start                     init         000C
start_initialization      cinit        000F
transform@temp            cstackBANK0  0042
transform@valor           cstackBANK0  0041
wtemp0                    (abs)        007E


MODULE INFORMATION

Module		Function		Class		Link	Load	Size
ADC_config.c
		_con_ADC       		CODE           	03BE	0000	53

ADC_config.c estimated size: 53

lcd_potes.c
		_lcd_setup     		CODE           	04DA	0000	23
		_main          		CODE           	010F	0000	129
		_isr           		CODE           	0492	0000	41
		_transform     		CODE           	0257	0000	83
		_division      		CODE           	01F9	0000	94
		_setup         		CODE           	04BB	0000	31
		_config_ie     		CODE           	0558	0000	7
		_config_io     		CODE           	04F1	0000	21
		_config_adc    		CODE           	0506	0000	18
		_config_tmr1   		CODE           	0536	0000	14
		_config_clock  		CODE           	0550	0000	8

lcd_potes.c estimated size: 469

lcd_8bitsA.c
		_LCD_CMD       		CODE           	0544	0000	12
		_LCD_START     		CODE           	02AA	0000	76
		_LCD_write     		CODE           	0518	0000	15
		_flip_EN       		CODE           	0527	0000	15
		_LCD_setCursor 		CODE           	0434	0000	51
		_LCD_writeString		CODE           	033C	0000	70

lcd_8bitsA.c estimated size: 239

C:\Program Files\Microchip\xc8\v2.32\pic\sources\c90\common\lwmod.c
		___lwmod       		CODE           	0382	0000	60

C:\Program Files\Microchip\xc8\v2.32\pic\sources\c90\common\lwmod.c estimated size: 60

shared
		__stringtab    		STRING         	0400	0000	16
		_dpowers       		STRING         	0410	0000	10
		__initialization		CODE           	000F	0000	18

shared estimated size: 44

C:\Program Files\Microchip\xc8\v2.32\pic\sources\c90\common\doprnt.c
		_sprintf       		CODE           	0025	0000	234

C:\Program Files\Microchip\xc8\v2.32\pic\sources\c90\common\doprnt.c estimated size: 234

C:\Program Files\Microchip\xc8\v2.32\pic\sources\c90\common\lwdiv.c
		___lwdiv       		CODE           	02F6	0000	70

C:\Program Files\Microchip\xc8\v2.32\pic\sources\c90\common\lwdiv.c estimated size: 70

C:\Program Files\Microchip\xc8\v2.32\pic\sources\c90\common\awdiv.c
		___awdiv       		CODE           	0190	0000	105

C:\Program Files\Microchip\xc8\v2.32\pic\sources\c90\common\awdiv.c estimated size: 105

C:\Program Files\Microchip\xc8\v2.32\pic\sources\c90\common\Umul16.c
		___wmul        		CODE           	0467	0000	43

C:\Program Files\Microchip\xc8\v2.32\pic\sources\c90\common\Umul16.c estimated size: 43

